target datalayout = "e-m:e-p270:32:32-p271:32:32-p272:64:64-i64:64-i128:128-f80:128-n8:16:32:64-S128"
target triple = "x86_64-pc-linux-gnu"

%"class.absl::lts_20240722::log_internal::Voidify" = type { i8 }
%"class.absl::lts_20240722::log_internal::LogMessage" = type { %"class.absl::lts_20240722::base_internal::ErrnoSaver", %"class.std::unique_ptr" }
%"class.absl::lts_20240722::base_internal::ErrnoSaver" = type { i32 }
%"class.std::unique_ptr" = type { %"struct.std::__uniq_ptr_data" }
%"struct.std::__uniq_ptr_data" = type { %"class.std::__uniq_ptr_impl" }
%"class.std::__uniq_ptr_impl" = type { %"class.std::tuple" }
%"class.std::tuple" = type { %"struct.std::_Tuple_impl" }
%"struct.std::_Tuple_impl" = type { %"struct.std::_Head_base.1" }
%"struct.std::_Head_base.1" = type { ptr }
%struct.grpc_slice = type { ptr, %"union.grpc_slice::grpc_slice_data" }
%"union.grpc_slice::grpc_slice_data" = type { %"struct.grpc_slice::grpc_slice_data::grpc_slice_refcounted", [8 x i8] }
%"struct.grpc_slice::grpc_slice_data::grpc_slice_refcounted" = type { i64, ptr }
%"class.grpc_core::DebugLocation" = type { i8 }
%struct.grpc_slice_buffer = type { ptr, ptr, i64, i64, i64, [6 x %struct.grpc_slice] }
%"class.std::basic_string_view" = type { i64, ptr }
%struct.grpc_slice_refcount = type { %"struct.std::atomic.8", ptr }
%"struct.std::atomic.8" = type { %"struct.std::__atomic_base.9" }
%"struct.std::__atomic_base.9" = type { i64 }

@.str = private unnamed_addr constant [132 x i8] c"generated/home/dtcxzyw/WorkSpace/Projects/compilers/llvm-opt-benchmark/bench/grpc/grpc/src/core/lib/compression/message_compress.cc\00", align 1
@.str.1 = private unnamed_addr constant [31 x i8] c"invalid compression algorithm \00", align 1

; Function Attrs: alwaysinline mustprogress nounwind uwtable
define linkonce_odr noundef i64 @_ZNSt13__atomic_baseImE9fetch_addEmSt12memory_order(ptr noundef nonnull align 8 dereferenceable(8) %0, i64 noundef %1, i32 noundef %2) #18 comdat align 2 {
  %4 = alloca ptr, align 8
  %5 = alloca i64, align 8
  %6 = alloca i32, align 4
  %7 = alloca i64, align 8
  %8 = alloca i64, align 8
  store ptr %0, ptr %4, align 8, !tbaa !68
  store i64 %1, ptr %5, align 8, !tbaa !10
  store i32 %2, ptr %6, align 4, !tbaa !60
  %9 = load ptr, ptr %4, align 8
  %10 = getelementptr inbounds nuw %"struct.std::__atomic_base.9", ptr %9, i32 0, i32 0
  %11 = load i32, ptr %6, align 4, !tbaa !60
  %12 = load i64, ptr %5, align 8, !tbaa !10
  store i64 %12, ptr %7, align 8, !tbaa !10
  switch i32 %11, label %13 [
    i32 1, label %16
    i32 2, label %16
    i32 3, label %19
    i32 4, label %22
    i32 5, label %25
  ]

13:                                               ; preds = %3
  %14 = load i64, ptr %7, align 8
  %15 = atomicrmw add ptr %10, i64 %14 monotonic, align 8
  store i64 %15, ptr %8, align 8
  br label %28

16:                                               ; preds = %3, %3
  %17 = load i64, ptr %7, align 8
  %18 = atomicrmw add ptr %10, i64 %17 acquire, align 8
  store i64 %18, ptr %8, align 8
  br label %28

19:                                               ; preds = %3
  %20 = load i64, ptr %7, align 8
  %21 = atomicrmw add ptr %10, i64 %20 release, align 8
  store i64 %21, ptr %8, align 8
  br label %28

22:                                               ; preds = %3
  %23 = load i64, ptr %7, align 8
  %24 = atomicrmw add ptr %10, i64 %23 acq_rel, align 8
  store i64 %24, ptr %8, align 8
  br label %28

25:                                               ; preds = %3
  %26 = load i64, ptr %7, align 8
  %27 = atomicrmw add ptr %10, i64 %26 seq_cst, align 8
  store i64 %27, ptr %8, align 8
  br label %28

28:                                               ; preds = %25, %22, %19, %16, %13
  %29 = load i64, ptr %8, align 8, !tbaa !10
  ret i64 %29
}

; Function Attrs: noinline noreturn nounwind uwtable
define linkonce_odr hidden void @__clang_call_terminate(ptr noundef %0) #14 comdat {
  %2 = call ptr @__cxa_begin_catch(ptr %0) #3
  call void @_ZSt9terminatev() #22
  unreachable
}

; Function Attrs: mustprogress nounwind uwtable
define linkonce_odr noundef i64 @_ZNSt11char_traitsIcE6lengthEPKc(ptr noundef %0) #6 comdat align 2 {
  %2 = alloca ptr, align 8
  store ptr %0, ptr %2, align 8, !tbaa !35
  %3 = load ptr, ptr %2, align 8, !tbaa !35
  %4 = call i64 @strlen(ptr noundef %3) #3
  ret i64 %4
}

; Function Attrs: mustprogress nounwind uwtable
define linkonce_odr void @_ZN19grpc_slice_refcount3RefEN9grpc_core13DebugLocationE(ptr noundef nonnull align 8 dereferenceable(16) %0) #6 comdat align 2 {
  %2 = alloca ptr, align 8
  %3 = alloca i64, align 8
  store ptr %0, ptr %2, align 8, !tbaa !17
  %4 = load ptr, ptr %2, align 8
  call void @llvm.lifetime.start.p0(i64 8, ptr %3) #3
  %5 = getelementptr inbounds nuw %struct.grpc_slice_refcount, ptr %4, i32 0, i32 0
  %6 = call noundef i64 @_ZNSt13__atomic_baseImE9fetch_addEmSt12memory_order(ptr noundef nonnull align 8 dereferenceable(8) %5, i64 noundef 1, i32 noundef 0) #3
  store i64 %6, ptr %3, align 8, !tbaa !10
  call void @llvm.lifetime.end.p0(i64 8, ptr %3) #3
  ret void
}

; Function Attrs: mustprogress nounwind uwtable
define linkonce_odr void @_ZNSt17basic_string_viewIcSt11char_traitsIcEEC2EPKc(ptr noundef nonnull align 8 dereferenceable(16) %0, ptr noundef nonnull %1) unnamed_addr #6 comdat align 2 personality ptr @__gxx_personality_v0 {
  %3 = alloca ptr, align 8
  %4 = alloca ptr, align 8
  store ptr %0, ptr %3, align 8, !tbaa !38
  store ptr %1, ptr %4, align 8, !tbaa !35
  %5 = load ptr, ptr %3, align 8
  %6 = getelementptr inbounds nuw %"class.std::basic_string_view", ptr %5, i32 0, i32 0
  %7 = load ptr, ptr %4, align 8, !tbaa !35
  %8 = invoke noundef i64 @_ZNSt11char_traitsIcE6lengthEPKc(ptr noundef %7)
          to label %9 unwind label %12

9:                                                ; preds = %2
  store i64 %8, ptr %6, align 8, !tbaa !40
  %10 = getelementptr inbounds nuw %"class.std::basic_string_view", ptr %5, i32 0, i32 1
  %11 = load ptr, ptr %4, align 8, !tbaa !35
  store ptr %11, ptr %10, align 8, !tbaa !42
  ret void

12:                                               ; preds = %2
  %13 = landingpad { ptr, i32 }
          catch ptr null
  %14 = extractvalue { ptr, i32 } %13, 0
  call void @__clang_call_terminate(ptr %14) #22
  unreachable
}

; Function Attrs: inlinehint mustprogress uwtable
define linkonce_odr noundef nonnull align 8 dereferenceable(32) ptr @_ZN9grpc_core9CSliceRefERK10grpc_sliceNS_13DebugLocationE(ptr noundef nonnull align 8 dereferenceable(32) %0) #13 comdat {
  %2 = alloca ptr, align 8
  store ptr %0, ptr %2, align 8, !tbaa !53
  %3 = load ptr, ptr %2, align 8, !tbaa !53
  %4 = getelementptr inbounds nuw %struct.grpc_slice, ptr %3, i32 0, i32 0
  %5 = load ptr, ptr %4, align 8, !tbaa !45
  %6 = ptrtoint ptr %5 to i64
  %7 = icmp ugt i64 %6, 1
  br i1 %7, label %8, label %12

8:                                                ; preds = %1
  %9 = load ptr, ptr %2, align 8, !tbaa !53
  %10 = getelementptr inbounds nuw %struct.grpc_slice, ptr %9, i32 0, i32 0
  %11 = load ptr, ptr %10, align 8, !tbaa !45
  call void @_ZN19grpc_slice_refcount3RefEN9grpc_core13DebugLocationE(ptr noundef nonnull align 8 dereferenceable(16) %11)
  br label %12

12:                                               ; preds = %8, %1
  %13 = load ptr, ptr %2, align 8, !tbaa !53
  ret ptr %13
}

; Function Attrs: mustprogress nounwind uwtable
define linkonce_odr void @_ZN9grpc_core13DebugLocationC2Ev(ptr noundef nonnull align 1 dereferenceable(1) %0) unnamed_addr #6 comdat align 2 {
  %2 = alloca ptr, align 8
  store ptr %0, ptr %2, align 8, !tbaa !54
  ret void
}

; Function Attrs: mustprogress nounwind uwtable
define linkonce_odr void @_ZNKO4absl12lts_2024072212log_internal7VoidifyaaINS1_10LogMessageEEEvRKT_(ptr noundef nonnull align 1 dereferenceable(1) %0, ptr noundef nonnull align 8 dereferenceable(16) %1) #6 comdat align 2 {
  %3 = alloca ptr, align 8
  %4 = alloca ptr, align 8
  store ptr %0, ptr %3, align 8, !tbaa !31
  store ptr %1, ptr %4, align 8, !tbaa !33
  ret void
}

; Function Attrs: mustprogress uwtable
define linkonce_odr noundef nonnull align 8 dereferenceable(16) ptr @_ZN4absl12lts_2024072212log_internal10LogMessagelsILi31EEERS2_RAT__Kc(ptr noundef nonnull align 8 dereferenceable(16) %0, ptr noundef nonnull align 1 dereferenceable(31) %1) #4 comdat align 2 {
  %3 = alloca ptr, align 8
  %4 = alloca ptr, align 8
  %5 = alloca %"class.std::basic_string_view", align 8
  store ptr %0, ptr %3, align 8, !tbaa !33
  store ptr %1, ptr %4, align 8, !tbaa !35
  %6 = load ptr, ptr %3, align 8
  %7 = load ptr, ptr %4, align 8, !tbaa !35
  %8 = getelementptr inbounds [31 x i8], ptr %7, i64 0, i64 0
  call void @_ZNSt17basic_string_viewIcSt11char_traitsIcEEC2EPKc(ptr noundef nonnull align 8 dereferenceable(16) %5, ptr noundef %8) #3
  %9 = getelementptr inbounds nuw { i64, ptr }, ptr %5, i32 0, i32 0
  %10 = load i64, ptr %9, align 8
  %11 = getelementptr inbounds nuw { i64, ptr }, ptr %5, i32 0, i32 1
  %12 = load ptr, ptr %11, align 8
  call void @_ZN4absl12lts_2024072212log_internal10LogMessage19CopyToEncodedBufferILNS2_10StringTypeE0EEEvSt17basic_string_viewIcSt11char_traitsIcEE(ptr noundef nonnull align 8 dereferenceable(16) %6, i64 %10, ptr %12)
  ret ptr %6
}

; Function Attrs: mustprogress nounwind uwtable
define linkonce_odr noundef nonnull align 8 dereferenceable(16) ptr @_ZN4absl12lts_2024072212log_internal10LogMessage14InternalStreamEv(ptr noundef nonnull align 8 dereferenceable(16) %0) #6 comdat align 2 {
  %2 = alloca ptr, align 8
  store ptr %0, ptr %2, align 8, !tbaa !33
  %3 = load ptr, ptr %2, align 8
  ret ptr %3
}

; Function Attrs: mustprogress uwtable
define internal noundef i32 @_ZL4copyP17grpc_slice_bufferS0_(ptr noundef %0, ptr noundef %1) #4 {
  %3 = alloca ptr, align 8
  %4 = alloca ptr, align 8
  %5 = alloca i64, align 8
  %6 = alloca %struct.grpc_slice, align 8
  %7 = alloca %"class.grpc_core::DebugLocation", align 1
  store ptr %0, ptr %3, align 8, !tbaa !7
  store ptr %1, ptr %4, align 8, !tbaa !7
  call void @llvm.lifetime.start.p0(i64 8, ptr %5) #3
  store i64 0, ptr %5, align 8, !tbaa !10
  br label %8

8:                                                ; preds = %22, %2
  %9 = load i64, ptr %5, align 8, !tbaa !10
  %10 = load ptr, ptr %3, align 8, !tbaa !7
  %11 = getelementptr inbounds nuw %struct.grpc_slice_buffer, ptr %10, i32 0, i32 2
  %12 = load i64, ptr %11, align 8, !tbaa !12
  %13 = icmp ult i64 %9, %12
  br i1 %13, label %14, label %25

14:                                               ; preds = %8
  %15 = load ptr, ptr %4, align 8, !tbaa !7
  %16 = load ptr, ptr %3, align 8, !tbaa !7
  %17 = getelementptr inbounds nuw %struct.grpc_slice_buffer, ptr %16, i32 0, i32 1
  %18 = load ptr, ptr %17, align 8, !tbaa !15
  %19 = load i64, ptr %5, align 8, !tbaa !10
  %20 = getelementptr inbounds nuw %struct.grpc_slice, ptr %18, i64 %19
  call void @_ZN9grpc_core13DebugLocationC2Ev(ptr noundef nonnull align 1 dereferenceable(1) %7)
  %21 = call noundef nonnull align 8 dereferenceable(32) ptr @_ZN9grpc_core9CSliceRefERK10grpc_sliceNS_13DebugLocationE(ptr noundef nonnull align 8 dereferenceable(32) %20)
  call void @llvm.memcpy.p0.p0.i64(ptr align 8 %6, ptr align 8 %21, i64 32, i1 false), !tbaa.struct !16
  call void @grpc_slice_buffer_add(ptr noundef %15, ptr noundef byval(%struct.grpc_slice) align 8 %6)
  br label %22

22:                                               ; preds = %14
  %23 = load i64, ptr %5, align 8, !tbaa !10
  %24 = add i64 %23, 1
  store i64 %24, ptr %5, align 8, !tbaa !10
  br label %8, !llvm.loop !20

25:                                               ; preds = %8
  call void @llvm.lifetime.end.p0(i64 8, ptr %5) #3
  ret i32 1
}

; Function Attrs: mustprogress uwtable
define internal noundef i32 @_ZL14compress_inner26grpc_compression_algorithmP17grpc_slice_bufferS1_(i32 noundef %0, ptr noundef %1, ptr noundef %2) #4 personality ptr @__gxx_personality_v0 {
  %4 = alloca i32, align 4
  %5 = alloca i32, align 4
  %6 = alloca ptr, align 8
  %7 = alloca ptr, align 8
  %8 = alloca %"class.absl::lts_20240722::log_internal::Voidify", align 1
  %9 = alloca %"class.absl::lts_20240722::log_internal::LogMessage", align 8
  %10 = alloca ptr, align 8
  %11 = alloca i32, align 4
  store i32 %0, ptr %5, align 4, !tbaa !3
  store ptr %1, ptr %6, align 8, !tbaa !7
  store ptr %2, ptr %7, align 8, !tbaa !7
  %12 = load i32, ptr %5, align 4, !tbaa !3
  switch i32 %12, label %22 [
    i32 0, label %13
    i32 1, label %14
    i32 2, label %18
    i32 3, label %22
  ]

13:                                               ; preds = %3
  store i32 0, ptr %4, align 4
  br label %34

14:                                               ; preds = %3
  %15 = load ptr, ptr %6, align 8, !tbaa !7
  %16 = load ptr, ptr %7, align 8, !tbaa !7
  %17 = call noundef i32 @_ZL13zlib_compressP17grpc_slice_bufferS0_i(ptr noundef %15, ptr noundef %16, i32 noundef 0)
  store i32 %17, ptr %4, align 4
  br label %34

18:                                               ; preds = %3
  %19 = load ptr, ptr %6, align 8, !tbaa !7
  %20 = load ptr, ptr %7, align 8, !tbaa !7
  %21 = call noundef i32 @_ZL13zlib_compressP17grpc_slice_bufferS0_i(ptr noundef %19, ptr noundef %20, i32 noundef 1)
  store i32 %21, ptr %4, align 4
  br label %34

22:                                               ; preds = %3, %3
  call void @llvm.lifetime.start.p0(i64 1, ptr %8) #3
  call void @llvm.lifetime.start.p0(i64 16, ptr %9) #3
  call void @_ZN4absl12lts_2024072212log_internal10LogMessageC1EPKciNS2_8ErrorTagE(ptr noundef nonnull align 8 dereferenceable(16) %9, ptr noundef @.str, i32 noundef 165) #20
  %23 = invoke noundef nonnull align 8 dereferenceable(16) ptr @_ZN4absl12lts_2024072212log_internal10LogMessage14InternalStreamEv(ptr noundef nonnull align 8 dereferenceable(16) %9)
          to label %24 unwind label %30

24:                                               ; preds = %22
  %25 = invoke noundef nonnull align 8 dereferenceable(16) ptr @_ZN4absl12lts_2024072212log_internal10LogMessagelsILi31EEERS2_RAT__Kc(ptr noundef nonnull align 8 dereferenceable(16) %23, ptr noundef nonnull align 1 dereferenceable(31) @.str.1)
          to label %26 unwind label %30

26:                                               ; preds = %24
  %27 = invoke noundef nonnull align 8 dereferenceable(16) ptr @_ZN4absl12lts_2024072212log_internal10LogMessagelsI26grpc_compression_algorithmTnNSt9enable_ifIXntsr4absl16HasAbslStringifyIT_EE5valueEiE4typeELi0EEERS2_RKS6_(ptr noundef nonnull align 8 dereferenceable(16) %25, ptr noundef nonnull align 4 dereferenceable(4) %5)
          to label %28 unwind label %30

28:                                               ; preds = %26
  invoke void @_ZNKO4absl12lts_2024072212log_internal7VoidifyaaINS1_10LogMessageEEEvRKT_(ptr noundef nonnull align 1 dereferenceable(1) %8, ptr noundef nonnull align 8 dereferenceable(16) %27)
          to label %29 unwind label %30

29:                                               ; preds = %28
  call void @_ZN4absl12lts_2024072212log_internal10LogMessageD1Ev(ptr noundef nonnull align 8 dereferenceable(16) %9) #21
  call void @llvm.lifetime.end.p0(i64 16, ptr %9) #3
  call void @llvm.lifetime.end.p0(i64 1, ptr %8) #3
  store i32 0, ptr %4, align 4
  br label %34

30:                                               ; preds = %28, %26, %24, %22
  %31 = landingpad { ptr, i32 }
          cleanup
  %32 = extractvalue { ptr, i32 } %31, 0
  store ptr %32, ptr %10, align 8
  %33 = extractvalue { ptr, i32 } %31, 1
  store i32 %33, ptr %11, align 4
  call void @_ZN4absl12lts_2024072212log_internal10LogMessageD1Ev(ptr noundef nonnull align 8 dereferenceable(16) %9) #21
  call void @llvm.lifetime.end.p0(i64 16, ptr %9) #3
  call void @llvm.lifetime.end.p0(i64 1, ptr %8) #3
  br label %36

34:                                               ; preds = %29, %18, %14, %13
  %35 = load i32, ptr %4, align 4
  ret i32 %35

36:                                               ; preds = %30
  %37 = load ptr, ptr %10, align 8
  %38 = load i32, ptr %11, align 4
  %39 = insertvalue { ptr, i32 } poison, ptr %37, 0
  %40 = insertvalue { ptr, i32 } %39, i32 %38, 1
  resume { ptr, i32 } %40
}

; Function Attrs: mustprogress uwtable
define noundef i32 @_Z17grpc_msg_compress26grpc_compression_algorithmP17grpc_slice_bufferS1_(i32 noundef %0, ptr noundef %1, ptr noundef %2) #4 {
  %4 = alloca i32, align 4
  %5 = alloca i32, align 4
  %6 = alloca ptr, align 8
  %7 = alloca ptr, align 8
  store i32 %0, ptr %5, align 4, !tbaa !3
  store ptr %1, ptr %6, align 8, !tbaa !7
  store ptr %2, ptr %7, align 8, !tbaa !7
  %8 = load i32, ptr %5, align 4, !tbaa !3
  %9 = load ptr, ptr %6, align 8, !tbaa !7
  %10 = load ptr, ptr %7, align 8, !tbaa !7
  %11 = call noundef i32 @_ZL14compress_inner26grpc_compression_algorithmP17grpc_slice_bufferS1_(i32 noundef %8, ptr noundef %9, ptr noundef %10)
  %12 = icmp ne i32 %11, 0
  br i1 %12, label %17, label %13

13:                                               ; preds = %3
  %14 = load ptr, ptr %6, align 8, !tbaa !7
  %15 = load ptr, ptr %7, align 8, !tbaa !7
  %16 = call noundef i32 @_ZL4copyP17grpc_slice_bufferS0_(ptr noundef %14, ptr noundef %15)
  store i32 0, ptr %4, align 4
  br label %18

17:                                               ; preds = %3
  store i32 1, ptr %4, align 4
  br label %18

18:                                               ; preds = %17, %13
  %19 = load i32, ptr %4, align 4
  ret i32 %19
}