; Function Attrs: mustprogress uwtable
define noundef range(i32 0, 2) i32 @_Z17grpc_msg_compress26grpc_compression_algorithmP17grpc_slice_bufferS1_(i32 noundef %0, ptr noundef readonly captures(none) %1, ptr noundef %2) local_unnamed_addr #3 personality ptr @__gxx_personality_v0 {
  %4 = alloca i32, align 4
  %5 = alloca %"class.absl::lts_20240722::log_internal::LogMessage", align 8
  call void @llvm.lifetime.start.p0(i64 4, ptr nonnull %4)
  store i32 %0, ptr %4, align 4, !tbaa !3
  switch i32 %0, label %7 [
    i32 0, label %_ZL14compress_inner26grpc_compression_algorithmP17grpc_slice_bufferS1_.exit.thread
    i32 1, label %_ZL14compress_inner26grpc_compression_algorithmP17grpc_slice_bufferS1_.exit
    i32 2, label %6
  ]

6:                                                ; preds = %3
  br label %_ZL14compress_inner26grpc_compression_algorithmP17grpc_slice_bufferS1_.exit

7:                                                ; preds = %3
  call void @llvm.lifetime.start.p0(i64 16, ptr nonnull %5) #12
  call void @_ZN4absl12lts_2024072212log_internal10LogMessageC1EPKciNS2_8ErrorTagE(ptr noundef nonnull align 8 dereferenceable(16) %5, ptr noundef nonnull @.str, i32 noundef 165) #13
  invoke void @_ZN4absl12lts_2024072212log_internal10LogMessage19CopyToEncodedBufferILNS2_10StringTypeE0EEEvSt17basic_string_viewIcSt11char_traitsIcEE(ptr noundef nonnull align 8 dereferenceable(16) %5, i64 30, ptr nonnull @.str.1)
          to label %_ZN4absl12lts_2024072212log_internal10LogMessagelsILi31EEERS2_RAT__Kc.exit.i unwind label %10

_ZN4absl12lts_2024072212log_internal10LogMessagelsILi31EEERS2_RAT__Kc.exit.i: ; preds = %7
  %8 = invoke noundef nonnull align 8 dereferenceable(16) ptr @_ZN4absl12lts_2024072212log_internal10LogMessagelsI26grpc_compression_algorithmTnNSt9enable_ifIXntsr4absl16HasAbslStringifyIT_EE5valueEiE4typeELi0EEERS2_RKS6_(ptr noundef nonnull align 8 dereferenceable(16) %5, ptr noundef nonnull align 4 dereferenceable(4) %4)
          to label %9 unwind label %10

9:                                                ; preds = %_ZN4absl12lts_2024072212log_internal10LogMessagelsILi31EEERS2_RAT__Kc.exit.i
  call void @_ZN4absl12lts_2024072212log_internal10LogMessageD1Ev(ptr noundef nonnull align 8 dereferenceable(16) %5) #14
  call void @llvm.lifetime.end.p0(i64 16, ptr nonnull %5) #12
  br label %_ZL14compress_inner26grpc_compression_algorithmP17grpc_slice_bufferS1_.exit.thread

10:                                               ; preds = %_ZN4absl12lts_2024072212log_internal10LogMessagelsILi31EEERS2_RAT__Kc.exit.i, %7
  %11 = landingpad { ptr, i32 }
          cleanup
  call void @_ZN4absl12lts_2024072212log_internal10LogMessageD1Ev(ptr noundef nonnull align 8 dereferenceable(16) %5) #14
  call void @llvm.lifetime.end.p0(i64 16, ptr nonnull %5) #12
  resume { ptr, i32 } %11

_ZL14compress_inner26grpc_compression_algorithmP17grpc_slice_bufferS1_.exit.thread: ; preds = %9, %3
  call void @llvm.lifetime.end.p0(i64 4, ptr nonnull %4)
  br label %13

_ZL14compress_inner26grpc_compression_algorithmP17grpc_slice_bufferS1_.exit: ; preds = %3, %6
  %.sink = phi i32 [ 1, %6 ], [ 0, %3 ]
  %12 = tail call fastcc noundef i32 @_ZL13zlib_compressP17grpc_slice_bufferS0_i(ptr noundef readonly %1, ptr noundef %2, i32 noundef %.sink)
  call void @llvm.lifetime.end.p0(i64 4, ptr nonnull %4)
  %.not = icmp eq i32 %12, 0
  br i1 %.not, label %13, label %_ZL4copyP17grpc_slice_bufferS0_.exit

13:                                               ; preds = %_ZL14compress_inner26grpc_compression_algorithmP17grpc_slice_bufferS1_.exit.thread, %_ZL14compress_inner26grpc_compression_algorithmP17grpc_slice_bufferS1_.exit
  %14 = getelementptr inbounds nuw i8, ptr %1, i64 16
  %15 = load i64, ptr %14, align 8, !tbaa !7
  %.not.i = icmp eq i64 %15, 0
  br i1 %.not.i, label %_ZL4copyP17grpc_slice_bufferS0_.exit, label %.lr.ph.i

.lr.ph.i:                                         ; preds = %13
  %16 = getelementptr inbounds nuw i8, ptr %1, i64 8
  br label %17

17:                                               ; preds = %_ZN9grpc_core9CSliceRefERK10grpc_sliceNS_13DebugLocationE.exit.i, %.lr.ph.i
  %.05.i = phi i64 [ 0, %.lr.ph.i ], [ %24, %_ZN9grpc_core9CSliceRefERK10grpc_sliceNS_13DebugLocationE.exit.i ]
  %18 = load ptr, ptr %16, align 8, !tbaa !12
  %19 = getelementptr inbounds nuw %struct.grpc_slice, ptr %18, i64 %.05.i
  %20 = load ptr, ptr %19, align 8, !tbaa !13
  %21 = icmp ugt ptr %20, inttoptr (i64 1 to ptr)
  br i1 %21, label %22, label %_ZN9grpc_core9CSliceRefERK10grpc_sliceNS_13DebugLocationE.exit.i

22:                                               ; preds = %17
  %23 = atomicrmw add ptr %20, i64 1 monotonic, align 8
  br label %_ZN9grpc_core9CSliceRefERK10grpc_sliceNS_13DebugLocationE.exit.i

_ZN9grpc_core9CSliceRefERK10grpc_sliceNS_13DebugLocationE.exit.i: ; preds = %22, %17
  call void @grpc_slice_buffer_add(ptr noundef %2, ptr noundef nonnull byval(%struct.grpc_slice) align 8 %19)
  %24 = add nuw i64 %.05.i, 1
  %25 = load i64, ptr %14, align 8, !tbaa !7
  %26 = icmp ult i64 %24, %25
  br i1 %26, label %17, label %_ZL4copyP17grpc_slice_bufferS0_.exit, !llvm.loop !16

_ZL4copyP17grpc_slice_bufferS0_.exit:             ; preds = %_ZN9grpc_core9CSliceRefERK10grpc_sliceNS_13DebugLocationE.exit.i, %13, %_ZL14compress_inner26grpc_compression_algorithmP17grpc_slice_bufferS1_.exit
  %.0 = phi i32 [ 1, %_ZL14compress_inner26grpc_compression_algorithmP17grpc_slice_bufferS1_.exit ], [ 0, %13 ], [ 0, %_ZN9grpc_core9CSliceRefERK10grpc_sliceNS_13DebugLocationE.exit.i ]
  ret i32 %.0
}